target datalayout = "e-m:e-p270:32:32-p271:32:32-p272:64:64-i64:64-i128:128-f80:128-n8:16:32:64-S128"
target triple = "x86_64-pc-linux-gnu"

%struct.jpeg_decompress_struct = type { ptr, ptr, ptr, ptr, i32, i32, ptr, i32, i32, i32, i32, i32, i32, i32, double, i32, i32, i32, i32, i32, i32, i32, i32, i32, i32, i32, i32, i32, i32, i32, i32, i32, i32, ptr, i32, i32, i32, i32, i32, ptr, [4 x ptr], [4 x ptr], [4 x ptr], i32, ptr, i32, i32, [16 x i8], [16 x i8], [16 x i8], i32, i32, i8, i8, i8, i16, i16, i32, i8, i32, ptr, i32, i32, i32, i32, ptr, i32, [4 x ptr], i32, i32, i32, [10 x i32], i32, i32, i32, i32, i32, ptr, ptr, ptr, ptr, ptr, ptr, ptr, ptr, ptr, ptr, ptr }
%struct.jpeg_component_info = type { i32, i32, i32, i32, i32, i32, i32, i32, i32, i32, i32, i32, i32, i32, i32, i32, i32, i32, i32, ptr, ptr }

; Function Attrs: nounwind uwtable
define void @jpeg_idct_2x2(ptr noundef %0, ptr noundef %1, ptr noundef %2, ptr noundef %3, i32 noundef %4) #0 {
  %6 = alloca ptr, align 8
  %7 = alloca ptr, align 8
  %8 = alloca ptr, align 8
  %9 = alloca ptr, align 8
  %10 = alloca i32, align 4
  %11 = alloca i64, align 8
  %12 = alloca i64, align 8
  %13 = alloca i64, align 8
  %14 = alloca ptr, align 8
  %15 = alloca ptr, align 8
  %16 = alloca ptr, align 8
  %17 = alloca ptr, align 8
  %18 = alloca ptr, align 8
  %19 = alloca i32, align 4
  %20 = alloca [16 x i32], align 16
  %21 = alloca i32, align 4
  %22 = alloca i8, align 1
  store ptr %0, ptr %6, align 8, !tbaa !3
  store ptr %1, ptr %7, align 8, !tbaa !8
  store ptr %2, ptr %8, align 8, !tbaa !9
  store ptr %3, ptr %9, align 8, !tbaa !11
  store i32 %4, ptr %10, align 4, !tbaa !13
  call void @llvm.lifetime.start.p0(i64 8, ptr %11) #2
  call void @llvm.lifetime.start.p0(i64 8, ptr %12) #2
  call void @llvm.lifetime.start.p0(i64 8, ptr %13) #2
  call void @llvm.lifetime.start.p0(i64 8, ptr %14) #2
  call void @llvm.lifetime.start.p0(i64 8, ptr %15) #2
  call void @llvm.lifetime.start.p0(i64 8, ptr %16) #2
  call void @llvm.lifetime.start.p0(i64 8, ptr %17) #2
  call void @llvm.lifetime.start.p0(i64 8, ptr %18) #2
  %23 = load ptr, ptr %6, align 8, !tbaa !3
  %24 = getelementptr inbounds nuw %struct.jpeg_decompress_struct, ptr %23, i32 0, i32 65
  %25 = load ptr, ptr %24, align 8, !tbaa !15
  %26 = getelementptr inbounds i8, ptr %25, i64 128
  store ptr %26, ptr %18, align 8, !tbaa !37
  call void @llvm.lifetime.start.p0(i64 4, ptr %19) #2
  call void @llvm.lifetime.start.p0(i64 64, ptr %20) #2
  %27 = load ptr, ptr %8, align 8, !tbaa !9
  store ptr %27, ptr %14, align 8, !tbaa !9
  %28 = load ptr, ptr %7, align 8, !tbaa !8
  %29 = getelementptr inbounds nuw %struct.jpeg_component_info, ptr %28, i32 0, i32 20
  %30 = load ptr, ptr %29, align 8, !tbaa !38
  store ptr %30, ptr %15, align 8, !tbaa !9
  %31 = getelementptr inbounds [16 x i32], ptr %20, i64 0, i64 0
  store ptr %31, ptr %16, align 8, !tbaa !40
  store i32 8, ptr %19, align 4, !tbaa !13
  br label %32

32:                                               ; preds = %171, %5
  %33 = load i32, ptr %19, align 4, !tbaa !13
  %34 = icmp sgt i32 %33, 0
  br i1 %34, label %35, label %180

35:                                               ; preds = %32
  %36 = load i32, ptr %19, align 4, !tbaa !13
  %37 = icmp eq i32 %36, 6
  br i1 %37, label %44, label %38

38:                                               ; preds = %35
  %39 = load i32, ptr %19, align 4, !tbaa !13
  %40 = icmp eq i32 %39, 4
  br i1 %40, label %44, label %41

41:                                               ; preds = %38
  %42 = load i32, ptr %19, align 4, !tbaa !13
  %43 = icmp eq i32 %42, 2
  br i1 %43, label %44, label %45

44:                                               ; preds = %41, %38, %35
  br label %171

45:                                               ; preds = %41
  %46 = load ptr, ptr %14, align 8, !tbaa !9
  %47 = getelementptr inbounds i16, ptr %46, i64 8
  %48 = load i16, ptr %47, align 2, !tbaa !41
  %49 = sext i16 %48 to i32
  %50 = icmp eq i32 %49, 0
  br i1 %50, label %51, label %88

51:                                               ; preds = %45
  %52 = load ptr, ptr %14, align 8, !tbaa !9
  %53 = getelementptr inbounds i16, ptr %52, i64 24
  %54 = load i16, ptr %53, align 2, !tbaa !41
  %55 = sext i16 %54 to i32
  %56 = icmp eq i32 %55, 0
  br i1 %56, label %57, label %88

57:                                               ; preds = %51
  %58 = load ptr, ptr %14, align 8, !tbaa !9
  %59 = getelementptr inbounds i16, ptr %58, i64 40
  %60 = load i16, ptr %59, align 2, !tbaa !41
  %61 = sext i16 %60 to i32
  %62 = icmp eq i32 %61, 0
  br i1 %62, label %63, label %88

63:                                               ; preds = %57
  %64 = load ptr, ptr %14, align 8, !tbaa !9
  %65 = getelementptr inbounds i16, ptr %64, i64 56
  %66 = load i16, ptr %65, align 2, !tbaa !41
  %67 = sext i16 %66 to i32
  %68 = icmp eq i32 %67, 0
  br i1 %68, label %69, label %88

69:                                               ; preds = %63
  call void @llvm.lifetime.start.p0(i64 4, ptr %21) #2
  %70 = load ptr, ptr %14, align 8, !tbaa !9
  %71 = getelementptr inbounds i16, ptr %70, i64 0
  %72 = load i16, ptr %71, align 2, !tbaa !41
  %73 = sext i16 %72 to i32
  %74 = load ptr, ptr %15, align 8, !tbaa !9
  %75 = getelementptr inbounds i16, ptr %74, i64 0
  %76 = load i16, ptr %75, align 2, !tbaa !41
  %77 = sext i16 %76 to i32
  %78 = mul nsw i32 %73, %77
  %79 = sext i32 %78 to i64
  %80 = shl i64 %79, 2
  %81 = trunc i64 %80 to i32
  store i32 %81, ptr %21, align 4, !tbaa !13
  %82 = load i32, ptr %21, align 4, !tbaa !13
  %83 = load ptr, ptr %16, align 8, !tbaa !40
  %84 = getelementptr inbounds i32, ptr %83, i64 0
  store i32 %82, ptr %84, align 4, !tbaa !13
  %85 = load i32, ptr %21, align 4, !tbaa !13
  %86 = load ptr, ptr %16, align 8, !tbaa !40
  %87 = getelementptr inbounds i32, ptr %86, i64 8
  store i32 %85, ptr %87, align 4, !tbaa !13
  call void @llvm.lifetime.end.p0(i64 4, ptr %21) #2
  br label %171

88:                                               ; preds = %63, %57, %51, %45
  %89 = load ptr, ptr %14, align 8, !tbaa !9
  %90 = getelementptr inbounds i16, ptr %89, i64 0
  %91 = load i16, ptr %90, align 2, !tbaa !41
  %92 = sext i16 %91 to i32
  %93 = load ptr, ptr %15, align 8, !tbaa !9
  %94 = getelementptr inbounds i16, ptr %93, i64 0
  %95 = load i16, ptr %94, align 2, !tbaa !41
  %96 = sext i16 %95 to i32
  %97 = mul nsw i32 %92, %96
  %98 = sext i32 %97 to i64
  store i64 %98, ptr %13, align 8, !tbaa !42
  %99 = load i64, ptr %13, align 8, !tbaa !42
  %100 = shl i64 %99, 15
  store i64 %100, ptr %12, align 8, !tbaa !42
  %101 = load ptr, ptr %14, align 8, !tbaa !9
  %102 = getelementptr inbounds i16, ptr %101, i64 56
  %103 = load i16, ptr %102, align 2, !tbaa !41
  %104 = sext i16 %103 to i32
  %105 = load ptr, ptr %15, align 8, !tbaa !9
  %106 = getelementptr inbounds i16, ptr %105, i64 56
  %107 = load i16, ptr %106, align 2, !tbaa !41
  %108 = sext i16 %107 to i32
  %109 = mul nsw i32 %104, %108
  %110 = sext i32 %109 to i64
  store i64 %110, ptr %13, align 8, !tbaa !42
  %111 = load i64, ptr %13, align 8, !tbaa !42
  %112 = mul nsw i64 %111, -5906
  store i64 %112, ptr %11, align 8, !tbaa !42
  %113 = load ptr, ptr %14, align 8, !tbaa !9
  %114 = getelementptr inbounds i16, ptr %113, i64 40
  %115 = load i16, ptr %114, align 2, !tbaa !41
  %116 = sext i16 %115 to i32
  %117 = load ptr, ptr %15, align 8, !tbaa !9
  %118 = getelementptr inbounds i16, ptr %117, i64 40
  %119 = load i16, ptr %118, align 2, !tbaa !41
  %120 = sext i16 %119 to i32
  %121 = mul nsw i32 %116, %120
  %122 = sext i32 %121 to i64
  store i64 %122, ptr %13, align 8, !tbaa !42
  %123 = load i64, ptr %13, align 8, !tbaa !42
  %124 = mul nsw i64 %123, 6967
  %125 = load i64, ptr %11, align 8, !tbaa !42
  %126 = add nsw i64 %125, %124
  store i64 %126, ptr %11, align 8, !tbaa !42
  %127 = load ptr, ptr %14, align 8, !tbaa !9
  %128 = getelementptr inbounds i16, ptr %127, i64 24
  %129 = load i16, ptr %128, align 2, !tbaa !41
  %130 = sext i16 %129 to i32
  %131 = load ptr, ptr %15, align 8, !tbaa !9
  %132 = getelementptr inbounds i16, ptr %131, i64 24
  %133 = load i16, ptr %132, align 2, !tbaa !41
  %134 = sext i16 %133 to i32
  %135 = mul nsw i32 %130, %134
  %136 = sext i32 %135 to i64
  store i64 %136, ptr %13, align 8, !tbaa !42
  %137 = load i64, ptr %13, align 8, !tbaa !42
  %138 = mul nsw i64 %137, -10426
  %139 = load i64, ptr %11, align 8, !tbaa !42
  %140 = add nsw i64 %139, %138
  store i64 %140, ptr %11, align 8, !tbaa !42
  %141 = load ptr, ptr %14, align 8, !tbaa !9
  %142 = getelementptr inbounds i16, ptr %141, i64 8
  %143 = load i16, ptr %142, align 2, !tbaa !41
  %144 = sext i16 %143 to i32
  %145 = load ptr, ptr %15, align 8, !tbaa !9
  %146 = getelementptr inbounds i16, ptr %145, i64 8
  %147 = load i16, ptr %146, align 2, !tbaa !41
  %148 = sext i16 %147 to i32
  %149 = mul nsw i32 %144, %148
  %150 = sext i32 %149 to i64
  store i64 %150, ptr %13, align 8, !tbaa !42
  %151 = load i64, ptr %13, align 8, !tbaa !42
  %152 = mul nsw i64 %151, 29692
  %153 = load i64, ptr %11, align 8, !tbaa !42
  %154 = add nsw i64 %153, %152
  store i64 %154, ptr %11, align 8, !tbaa !42
  %155 = load i64, ptr %12, align 8, !tbaa !42
  %156 = load i64, ptr %11, align 8, !tbaa !42
  %157 = add nsw i64 %155, %156
  %158 = add nsw i64 %157, 4096
  %159 = ashr i64 %158, 13
  %160 = trunc i64 %159 to i32
  %161 = load ptr, ptr %16, align 8, !tbaa !40
  %162 = getelementptr inbounds i32, ptr %161, i64 0
  store i32 %160, ptr %162, align 4, !tbaa !13
  %163 = load i64, ptr %12, align 8, !tbaa !42
  %164 = load i64, ptr %11, align 8, !tbaa !42
  %165 = sub nsw i64 %163, %164
  %166 = add nsw i64 %165, 4096
  %167 = ashr i64 %166, 13
  %168 = trunc i64 %167 to i32
  %169 = load ptr, ptr %16, align 8, !tbaa !40
  %170 = getelementptr inbounds i32, ptr %169, i64 8
  store i32 %168, ptr %170, align 4, !tbaa !13
  br label %171

171:                                              ; preds = %88, %69, %44
  %172 = load ptr, ptr %14, align 8, !tbaa !9
  %173 = getelementptr inbounds nuw i16, ptr %172, i32 1
  store ptr %173, ptr %14, align 8, !tbaa !9
  %174 = load ptr, ptr %15, align 8, !tbaa !9
  %175 = getelementptr inbounds nuw i16, ptr %174, i32 1
  store ptr %175, ptr %15, align 8, !tbaa !9
  %176 = load ptr, ptr %16, align 8, !tbaa !40
  %177 = getelementptr inbounds nuw i32, ptr %176, i32 1
  store ptr %177, ptr %16, align 8, !tbaa !40
  %178 = load i32, ptr %19, align 4, !tbaa !13
  %179 = add nsw i32 %178, -1
  store i32 %179, ptr %19, align 4, !tbaa !13
  br label %32, !llvm.loop !48

180:                                              ; preds = %32
  %181 = getelementptr inbounds [16 x i32], ptr %20, i64 0, i64 0
  store ptr %181, ptr %16, align 8, !tbaa !40
  store i32 0, ptr %19, align 4, !tbaa !13
  br label %182

182:                                              ; preds = %291, %180
  %183 = load i32, ptr %19, align 4, !tbaa !13
  %184 = icmp slt i32 %183, 2
  br i1 %184, label %185, label %294

185:                                              ; preds = %182
  %186 = load ptr, ptr %9, align 8, !tbaa !11
  %187 = load i32, ptr %19, align 4, !tbaa !13
  %188 = sext i32 %187 to i64
  %189 = getelementptr inbounds ptr, ptr %186, i64 %188
  %190 = load ptr, ptr %189, align 8, !tbaa !37
  %191 = load i32, ptr %10, align 4, !tbaa !13
  %192 = zext i32 %191 to i64
  %193 = getelementptr inbounds nuw i8, ptr %190, i64 %192
  store ptr %193, ptr %17, align 8, !tbaa !37
  %194 = load ptr, ptr %16, align 8, !tbaa !40
  %195 = getelementptr inbounds i32, ptr %194, i64 1
  %196 = load i32, ptr %195, align 4, !tbaa !13
  %197 = icmp eq i32 %196, 0
  br i1 %197, label %198, label %234

198:                                              ; preds = %185
  %199 = load ptr, ptr %16, align 8, !tbaa !40
  %200 = getelementptr inbounds i32, ptr %199, i64 3
  %201 = load i32, ptr %200, align 4, !tbaa !13
  %202 = icmp eq i32 %201, 0
  br i1 %202, label %203, label %234

203:                                              ; preds = %198
  %204 = load ptr, ptr %16, align 8, !tbaa !40
  %205 = getelementptr inbounds i32, ptr %204, i64 5
  %206 = load i32, ptr %205, align 4, !tbaa !13
  %207 = icmp eq i32 %206, 0
  br i1 %207, label %208, label %234

208:                                              ; preds = %203
  %209 = load ptr, ptr %16, align 8, !tbaa !40
  %210 = getelementptr inbounds i32, ptr %209, i64 7
  %211 = load i32, ptr %210, align 4, !tbaa !13
  %212 = icmp eq i32 %211, 0
  br i1 %212, label %213, label %234

213:                                              ; preds = %208
  call void @llvm.lifetime.start.p0(i64 1, ptr %22) #2
  %214 = load ptr, ptr %18, align 8, !tbaa !37
  %215 = load ptr, ptr %16, align 8, !tbaa !40
  %216 = getelementptr inbounds i32, ptr %215, i64 0
  %217 = load i32, ptr %216, align 4, !tbaa !13
  %218 = sext i32 %217 to i64
  %219 = add nsw i64 %218, 16
  %220 = ashr i64 %219, 5
  %221 = trunc i64 %220 to i32
  %222 = and i32 %221, 1023
  %223 = sext i32 %222 to i64
  %224 = getelementptr inbounds i8, ptr %214, i64 %223
  %225 = load i8, ptr %224, align 1, !tbaa !46
  store i8 %225, ptr %22, align 1, !tbaa !46
  %226 = load i8, ptr %22, align 1, !tbaa !46
  %227 = load ptr, ptr %17, align 8, !tbaa !37
  %228 = getelementptr inbounds i8, ptr %227, i64 0
  store i8 %226, ptr %228, align 1, !tbaa !46
  %229 = load i8, ptr %22, align 1, !tbaa !46
  %230 = load ptr, ptr %17, align 8, !tbaa !37
  %231 = getelementptr inbounds i8, ptr %230, i64 1
  store i8 %229, ptr %231, align 1, !tbaa !46
  %232 = load ptr, ptr %16, align 8, !tbaa !40
  %233 = getelementptr inbounds i32, ptr %232, i64 8
  store ptr %233, ptr %16, align 8, !tbaa !40
  call void @llvm.lifetime.end.p0(i64 1, ptr %22) #2
  br label %291

234:                                              ; preds = %208, %203, %198, %185
  %235 = load ptr, ptr %16, align 8, !tbaa !40
  %236 = getelementptr inbounds i32, ptr %235, i64 0
  %237 = load i32, ptr %236, align 4, !tbaa !13
  %238 = sext i32 %237 to i64
  %239 = shl i64 %238, 15
  store i64 %239, ptr %12, align 8, !tbaa !42
  %240 = load ptr, ptr %16, align 8, !tbaa !40
  %241 = getelementptr inbounds i32, ptr %240, i64 7
  %242 = load i32, ptr %241, align 4, !tbaa !13
  %243 = sext i32 %242 to i64
  %244 = mul nsw i64 %243, -5906
  %245 = load ptr, ptr %16, align 8, !tbaa !40
  %246 = getelementptr inbounds i32, ptr %245, i64 5
  %247 = load i32, ptr %246, align 4, !tbaa !13
  %248 = sext i32 %247 to i64
  %249 = mul nsw i64 %248, 6967
  %250 = add nsw i64 %244, %249
  %251 = load ptr, ptr %16, align 8, !tbaa !40
  %252 = getelementptr inbounds i32, ptr %251, i64 3
  %253 = load i32, ptr %252, align 4, !tbaa !13
  %254 = sext i32 %253 to i64
  %255 = mul nsw i64 %254, -10426
  %256 = add nsw i64 %250, %255
  %257 = load ptr, ptr %16, align 8, !tbaa !40
  %258 = getelementptr inbounds i32, ptr %257, i64 1
  %259 = load i32, ptr %258, align 4, !tbaa !13
  %260 = sext i32 %259 to i64
  %261 = mul nsw i64 %260, 29692
  %262 = add nsw i64 %256, %261
  store i64 %262, ptr %11, align 8, !tbaa !42
  %263 = load ptr, ptr %18, align 8, !tbaa !37
  %264 = load i64, ptr %12, align 8, !tbaa !42
  %265 = load i64, ptr %11, align 8, !tbaa !42
  %266 = add nsw i64 %264, %265
  %267 = add nsw i64 %266, 524288
  %268 = ashr i64 %267, 20
  %269 = trunc i64 %268 to i32
  %270 = and i32 %269, 1023
  %271 = sext i32 %270 to i64
  %272 = getelementptr inbounds i8, ptr %263, i64 %271
  %273 = load i8, ptr %272, align 1, !tbaa !46
  %274 = load ptr, ptr %17, align 8, !tbaa !37
  %275 = getelementptr inbounds i8, ptr %274, i64 0
  store i8 %273, ptr %275, align 1, !tbaa !46
  %276 = load ptr, ptr %18, align 8, !tbaa !37
  %277 = load i64, ptr %12, align 8, !tbaa !42
  %278 = load i64, ptr %11, align 8, !tbaa !42
  %279 = sub nsw i64 %277, %278
  %280 = add nsw i64 %279, 524288
  %281 = ashr i64 %280, 20
  %282 = trunc i64 %281 to i32
  %283 = and i32 %282, 1023
  %284 = sext i32 %283 to i64
  %285 = getelementptr inbounds i8, ptr %276, i64 %284
  %286 = load i8, ptr %285, align 1, !tbaa !46
  %287 = load ptr, ptr %17, align 8, !tbaa !37
  %288 = getelementptr inbounds i8, ptr %287, i64 1
  store i8 %286, ptr %288, align 1, !tbaa !46
  %289 = load ptr, ptr %16, align 8, !tbaa !40
  %290 = getelementptr inbounds i32, ptr %289, i64 8
  store ptr %290, ptr %16, align 8, !tbaa !40
  br label %291

291:                                              ; preds = %234, %213
  %292 = load i32, ptr %19, align 4, !tbaa !13
  %293 = add nsw i32 %292, 1
  store i32 %293, ptr %19, align 4, !tbaa !13
  br label %182, !llvm.loop !49

294:                                              ; preds = %182
  call void @llvm.lifetime.end.p0(i64 64, ptr %20) #2
  call void @llvm.lifetime.end.p0(i64 4, ptr %19) #2
  call void @llvm.lifetime.end.p0(i64 8, ptr %18) #2
  call void @llvm.lifetime.end.p0(i64 8, ptr %17) #2
  call void @llvm.lifetime.end.p0(i64 8, ptr %16) #2
  call void @llvm.lifetime.end.p0(i64 8, ptr %15) #2
  call void @llvm.lifetime.end.p0(i64 8, ptr %14) #2
  call void @llvm.lifetime.end.p0(i64 8, ptr %13) #2
  call void @llvm.lifetime.end.p0(i64 8, ptr %12) #2
  call void @llvm.lifetime.end.p0(i64 8, ptr %11) #2
  ret void
}