; Function Attrs: nofree norecurse nosync nounwind memory(readwrite, inaccessiblemem: none) uwtable
define void @jpeg_idct_2x2(ptr noundef readonly captures(none) %0, ptr noundef readonly captures(none) %1, ptr noundef readonly captures(none) %2, ptr noundef readonly captures(none) %3, i32 noundef %4) local_unnamed_addr #0 {
  %6 = alloca [16 x i32], align 16
  %7 = getelementptr inbounds nuw i8, ptr %0, i64 424
  %8 = load ptr, ptr %7, align 8, !tbaa !3
  call void @llvm.lifetime.start.p0(i64 64, ptr nonnull %6) #3
  %9 = getelementptr inbounds nuw i8, ptr %1, i64 88
  %10 = load ptr, ptr %9, align 8, !tbaa !30
  br label %13

.preheader:                                       ; preds = %84
  %11 = getelementptr inbounds nuw i8, ptr %8, i64 128
  %12 = zext i32 %4 to i64
  br label %90

13:                                               ; preds = %5, %84
  %.085 = phi i32 [ 8, %5 ], [ %88, %84 ]
  %.07784 = phi ptr [ %2, %5 ], [ %85, %84 ]
  %.07883 = phi ptr [ %10, %5 ], [ %86, %84 ]
  %.07982 = phi ptr [ %6, %5 ], [ %87, %84 ]
  %14 = and i32 %.085, 2147483645
  %or.cond = icmp eq i32 %14, 4
  %15 = icmp eq i32 %.085, 2
  %or.cond3 = or i1 %15, %or.cond
  br i1 %or.cond3, label %84, label %16

16:                                               ; preds = %13
  %17 = getelementptr inbounds nuw i8, ptr %.07784, i64 16
  %18 = load i16, ptr %17, align 2, !tbaa !32
  %19 = icmp eq i16 %18, 0
  %20 = getelementptr inbounds nuw i8, ptr %.07784, i64 48
  %21 = load i16, ptr %20, align 2, !tbaa !32
  %22 = icmp eq i16 %21, 0
  %or.cond92 = select i1 %19, i1 %22, i1 false
  br i1 %or.cond92, label %23, label %._crit_edge

23:                                               ; preds = %16
  %24 = getelementptr inbounds nuw i8, ptr %.07784, i64 80
  %25 = load i16, ptr %24, align 2, !tbaa !32
  %26 = icmp eq i16 %25, 0
  br i1 %26, label %27, label %._crit_edge

27:                                               ; preds = %23
  %28 = getelementptr inbounds nuw i8, ptr %.07784, i64 112
  %29 = load i16, ptr %28, align 2, !tbaa !32
  %30 = icmp eq i16 %29, 0
  br i1 %30, label %31, label %._crit_edge

31:                                               ; preds = %27
  %32 = load i16, ptr %.07784, align 2, !tbaa !32
  %33 = sext i16 %32 to i32
  %34 = load i16, ptr %.07883, align 2, !tbaa !32
  %35 = sext i16 %34 to i32
  %36 = shl nsw i32 %33, 2
  %37 = mul i32 %36, %35
  store i32 %37, ptr %.07982, align 4, !tbaa !33
  br label %.sink.split

._crit_edge:                                      ; preds = %16, %27, %23
  %38 = phi i16 [ 0, %27 ], [ 0, %23 ], [ %21, %16 ]
  %39 = load i16, ptr %.07784, align 2, !tbaa !32
  %40 = sext i16 %39 to i64
  %41 = load i16, ptr %.07883, align 2, !tbaa !32
  %42 = sext i16 %41 to i64
  %43 = shl nsw i64 %40, 15
  %44 = mul nsw i64 %43, %42
  %45 = getelementptr inbounds nuw i8, ptr %.07784, i64 112
  %46 = load i16, ptr %45, align 2, !tbaa !32
  %47 = sext i16 %46 to i64
  %48 = getelementptr inbounds nuw i8, ptr %.07883, i64 112
  %49 = load i16, ptr %48, align 2, !tbaa !32
  %50 = sext i16 %49 to i64
  %51 = mul nsw i64 %47, -5906
  %52 = mul nsw i64 %51, %50
  %53 = getelementptr inbounds nuw i8, ptr %.07784, i64 80
  %54 = load i16, ptr %53, align 2, !tbaa !32
  %55 = sext i16 %54 to i64
  %56 = getelementptr inbounds nuw i8, ptr %.07883, i64 80
  %57 = load i16, ptr %56, align 2, !tbaa !32
  %58 = sext i16 %57 to i64
  %59 = mul nsw i64 %55, 6967
  %60 = mul nsw i64 %59, %58
  %61 = add nsw i64 %60, %52
  %62 = sext i16 %38 to i64
  %63 = getelementptr inbounds nuw i8, ptr %.07883, i64 48
  %64 = load i16, ptr %63, align 2, !tbaa !32
  %65 = sext i16 %64 to i64
  %66 = mul nsw i64 %62, -10426
  %67 = mul nsw i64 %66, %65
  %68 = add nsw i64 %61, %67
  %69 = sext i16 %18 to i64
  %70 = getelementptr inbounds nuw i8, ptr %.07883, i64 16
  %71 = load i16, ptr %70, align 2, !tbaa !32
  %72 = sext i16 %71 to i64
  %73 = mul nsw i64 %69, 29692
  %74 = mul nsw i64 %73, %72
  %75 = add nsw i64 %68, %74
  %76 = or disjoint i64 %44, 4096
  %77 = add nsw i64 %76, %75
  %78 = lshr i64 %77, 13
  %79 = trunc i64 %78 to i32
  store i32 %79, ptr %.07982, align 4, !tbaa !33
  %80 = sub nsw i64 %76, %75
  %81 = lshr i64 %80, 13
  %82 = trunc i64 %81 to i32
  br label %.sink.split

.sink.split:                                      ; preds = %31, %._crit_edge
  %.sink = phi i32 [ %82, %._crit_edge ], [ %37, %31 ]
  %83 = getelementptr inbounds nuw i8, ptr %.07982, i64 32
  store i32 %.sink, ptr %83, align 4, !tbaa !33
  br label %84

84:                                               ; preds = %.sink.split, %13
  %85 = getelementptr inbounds nuw i8, ptr %.07784, i64 2
  %86 = getelementptr inbounds nuw i8, ptr %.07883, i64 2
  %87 = getelementptr inbounds nuw i8, ptr %.07982, i64 4
  %88 = add nsw i32 %.085, -1
  %89 = icmp ugt i32 %.085, 1
  br i1 %89, label %13, label %.preheader, !llvm.loop !39

90:                                               ; preds = %.preheader, %147
  %91 = phi i1 [ true, %.preheader ], [ false, %147 ]
  %indvars.iv = phi i64 [ 0, %.preheader ], [ 1, %147 ]
  %.18086 = phi ptr [ %6, %.preheader ], [ %.2, %147 ]
  %92 = getelementptr inbounds nuw ptr, ptr %3, i64 %indvars.iv
  %93 = load ptr, ptr %92, align 8, !tbaa !36
  %94 = getelementptr inbounds nuw i8, ptr %93, i64 %12
  %95 = getelementptr inbounds nuw i8, ptr %.18086, i64 4
  %96 = load i32, ptr %95, align 4, !tbaa !33
  %97 = icmp eq i32 %96, 0
  %98 = getelementptr inbounds nuw i8, ptr %.18086, i64 12
  %99 = load i32, ptr %98, align 4, !tbaa !33
  %100 = icmp eq i32 %99, 0
  %or.cond94 = select i1 %97, i1 %100, i1 false
  br i1 %or.cond94, label %101, label %._crit_edge89

101:                                              ; preds = %90
  %102 = getelementptr inbounds nuw i8, ptr %.18086, i64 20
  %103 = load i32, ptr %102, align 4, !tbaa !33
  %104 = icmp eq i32 %103, 0
  br i1 %104, label %105, label %._crit_edge89

105:                                              ; preds = %101
  %106 = getelementptr inbounds nuw i8, ptr %.18086, i64 28
  %107 = load i32, ptr %106, align 4, !tbaa !33
  %108 = icmp eq i32 %107, 0
  br i1 %108, label %109, label %._crit_edge89

109:                                              ; preds = %105
  %110 = load i32, ptr %.18086, align 4, !tbaa !33
  %111 = add i32 %110, 16
  %112 = lshr i32 %111, 5
  %113 = and i32 %112, 1023
  %114 = zext nneg i32 %113 to i64
  %115 = getelementptr inbounds nuw i8, ptr %11, i64 %114
  %116 = load i8, ptr %115, align 1, !tbaa !37
  store i8 %116, ptr %94, align 1, !tbaa !37
  br label %147

._crit_edge89:                                    ; preds = %90, %105, %101
  %117 = phi i32 [ 0, %105 ], [ 0, %101 ], [ %99, %90 ]
  %118 = load i32, ptr %.18086, align 4, !tbaa !33
  %119 = sext i32 %118 to i64
  %120 = shl nsw i64 %119, 15
  %121 = getelementptr inbounds nuw i8, ptr %.18086, i64 28
  %122 = load i32, ptr %121, align 4, !tbaa !33
  %123 = zext i32 %122 to i64
  %124 = mul nsw i64 %123, -5906
  %125 = getelementptr inbounds nuw i8, ptr %.18086, i64 20
  %126 = load i32, ptr %125, align 4, !tbaa !33
  %127 = zext i32 %126 to i64
  %128 = mul nuw nsw i64 %127, 6967
  %129 = zext i32 %117 to i64
  %130 = mul nsw i64 %129, -10426
  %131 = zext i32 %96 to i64
  %132 = mul nuw nsw i64 %131, 29692
  %133 = add nsw i64 %124, %132
  %134 = add nsw i64 %133, %128
  %135 = add nsw i64 %134, %130
  %136 = add nsw i64 %120, 524288
  %137 = add nsw i64 %136, %135
  %138 = lshr i64 %137, 20
  %139 = and i64 %138, 1023
  %140 = getelementptr inbounds nuw i8, ptr %11, i64 %139
  %141 = load i8, ptr %140, align 1, !tbaa !37
  store i8 %141, ptr %94, align 1, !tbaa !37
  %142 = sub nsw i64 %136, %135
  %143 = lshr i64 %142, 20
  %144 = and i64 %143, 1023
  %145 = getelementptr inbounds nuw i8, ptr %11, i64 %144
  %146 = load i8, ptr %145, align 1, !tbaa !37
  br label %147

147:                                              ; preds = %._crit_edge89, %109
  %.sink95 = phi i8 [ %146, %._crit_edge89 ], [ %116, %109 ]
  %148 = getelementptr inbounds nuw i8, ptr %94, i64 1
  store i8 %.sink95, ptr %148, align 1, !tbaa !37
  %.2 = getelementptr inbounds nuw i8, ptr %.18086, i64 32
  br i1 %91, label %90, label %149, !llvm.loop !40

149:                                              ; preds = %147
  call void @llvm.lifetime.end.p0(i64 64, ptr nonnull %6) #3
  ret void
}